target datalayout = "e-m:e-p270:32:32-p271:32:32-p272:64:64-i64:64-i128:128-f80:128-n8:16:32:64-S128"
target triple = "x86_64-pc-linux-gnu"

%"class.std::__cxx11::basic_string" = type { %"struct.std::__cxx11::basic_string<char>::_Alloc_hider", i64, %union.anon }
%"struct.std::__cxx11::basic_string<char>::_Alloc_hider" = type { ptr }
%union.anon = type { i64, [8 x i8] }
%"class.std::shared_ptr" = type { %"class.std::__shared_ptr" }
%"class.std::__shared_ptr" = type { ptr, %"class.std::__shared_count" }
%"class.std::__shared_count" = type { ptr }
%"class.open_spiel::matching_pennies_3p::MatchingPennies3pState" = type { %"class.open_spiel::NFGState.base", i8, %"class.std::vector.6" }
%"class.open_spiel::NFGState.base" = type { %"class.open_spiel::SimMoveState.base" }
%"class.open_spiel::SimMoveState.base" = type { %"class.open_spiel::State.base" }
%"class.open_spiel::State.base" = type <{ ptr, %"class.std::shared_ptr", i32, i32, %"class.std::vector", i32 }>
%"class.std::vector" = type { %"struct.std::_Vector_base" }
%"struct.std::_Vector_base" = type { %"struct.std::_Vector_base<open_spiel::State::PlayerAction, std::allocator<open_spiel::State::PlayerAction>>::_Vector_impl" }
%"struct.std::_Vector_base<open_spiel::State::PlayerAction, std::allocator<open_spiel::State::PlayerAction>>::_Vector_impl" = type { %"struct.std::_Vector_base<open_spiel::State::PlayerAction, std::allocator<open_spiel::State::PlayerAction>>::_Vector_impl_data" }
%"struct.std::_Vector_base<open_spiel::State::PlayerAction, std::allocator<open_spiel::State::PlayerAction>>::_Vector_impl_data" = type { ptr, ptr, ptr }
%"class.std::vector.6" = type { %"struct.std::_Vector_base.7" }
%"struct.std::_Vector_base.7" = type { %"struct.std::_Vector_base<double, std::allocator<double>>::_Vector_impl" }
%"struct.std::_Vector_base<double, std::allocator<double>>::_Vector_impl" = type { %"struct.std::_Vector_base<double, std::allocator<double>>::_Vector_impl_data" }
%"struct.std::_Vector_base<double, std::allocator<double>>::_Vector_impl_data" = type { ptr, ptr, ptr }
%"struct.std::_Vector_base.12" = type { %"struct.std::_Vector_base<long, std::allocator<long>>::_Vector_impl" }
%"struct.std::_Vector_base<long, std::allocator<long>>::_Vector_impl" = type { %"struct.std::_Vector_base<long, std::allocator<long>>::_Vector_impl_data" }
%"struct.std::_Vector_base<long, std::allocator<long>>::_Vector_impl_data" = type { ptr, ptr, ptr }
%"class.open_spiel::State" = type <{ ptr, %"class.std::shared_ptr", i32, i32, %"class.std::vector", i32, [4 x i8] }>

@.str.8 = private unnamed_addr constant [158 x i8] c"generated/home/dtcxzyw/WorkSpace/Projects/compilers/llvm-opt-benchmark/bench/openspiel/open_spiel/open_spiel/games/matching_pennies_3p/matching_pennies_3p.cc\00", align 1
@.str.9 = private unnamed_addr constant [2 x i8] c":\00", align 1
@.str.10 = private unnamed_addr constant [2 x i8] c" \00", align 1
@.str.11 = private unnamed_addr constant [31 x i8] c"actions.size() == NumPlayers()\00", align 1
@.str.12 = private unnamed_addr constant [16 x i8] c"\0Aactions.size()\00", align 1
@.str.13 = private unnamed_addr constant [4 x i8] c" = \00", align 1
@.str.14 = private unnamed_addr constant [18 x i8] c", NumPlayers() = \00", align 1

; Function Attrs: mustprogress nounwind uwtable
define linkonce_odr noundef nonnull align 8 dereferenceable(8) ptr @_ZNSt6vectorIdSaIdEEixEm(ptr noundef nonnull align 8 dereferenceable(24) %0, i64 noundef %1) #6 comdat align 2 {
  %3 = alloca ptr, align 8
  %4 = alloca i64, align 8
  store ptr %0, ptr %3, align 8
  store i64 %1, ptr %4, align 8
  %5 = load ptr, ptr %3, align 8
  %6 = getelementptr inbounds nuw %"struct.std::_Vector_base.7", ptr %5, i32 0, i32 0
  %7 = getelementptr inbounds nuw %"struct.std::_Vector_base<double, std::allocator<double>>::_Vector_impl_data", ptr %6, i32 0, i32 0
  %8 = load ptr, ptr %7, align 8
  %9 = load i64, ptr %4, align 8
  %10 = getelementptr inbounds double, ptr %8, i64 %9
  ret ptr %10
}

; Function Attrs: mustprogress nounwind uwtable
define linkonce_odr noundef nonnull align 8 dereferenceable(8) ptr @_ZNKSt6vectorIlSaIlEEixEm(ptr noundef nonnull align 8 dereferenceable(24) %0, i64 noundef %1) #6 comdat align 2 {
  %3 = alloca ptr, align 8
  %4 = alloca i64, align 8
  store ptr %0, ptr %3, align 8
  store i64 %1, ptr %4, align 8
  %5 = load ptr, ptr %3, align 8
  %6 = getelementptr inbounds nuw %"struct.std::_Vector_base.12", ptr %5, i32 0, i32 0
  %7 = getelementptr inbounds nuw %"struct.std::_Vector_base<long, std::allocator<long>>::_Vector_impl_data", ptr %6, i32 0, i32 0
  %8 = load ptr, ptr %7, align 8
  %9 = load i64, ptr %4, align 8
  %10 = getelementptr inbounds i64, ptr %8, i64 %9
  ret ptr %10
}

; Function Attrs: mustprogress nounwind uwtable
define linkonce_odr noundef i32 @_ZNK10open_spiel5State10NumPlayersEv(ptr noundef nonnull align 8 dereferenceable(60) %0) #6 comdat align 2 {
  %2 = alloca ptr, align 8
  store ptr %0, ptr %2, align 8
  %3 = load ptr, ptr %2, align 8
  %4 = getelementptr inbounds nuw %"class.open_spiel::State", ptr %3, i32 0, i32 3
  %5 = load i32, ptr %4, align 4
  ret i32 %5
}

; Function Attrs: mustprogress nounwind uwtable
define linkonce_odr noundef i64 @_ZNKSt6vectorIlSaIlEE4sizeEv(ptr noundef nonnull align 8 dereferenceable(24) %0) #6 comdat align 2 {
  %2 = alloca ptr, align 8
  store ptr %0, ptr %2, align 8
  %3 = load ptr, ptr %2, align 8
  %4 = getelementptr inbounds nuw %"struct.std::_Vector_base.12", ptr %3, i32 0, i32 0
  %5 = getelementptr inbounds nuw %"struct.std::_Vector_base<long, std::allocator<long>>::_Vector_impl_data", ptr %4, i32 0, i32 1
  %6 = load ptr, ptr %5, align 8
  %7 = getelementptr inbounds nuw %"struct.std::_Vector_base.12", ptr %3, i32 0, i32 0
  %8 = getelementptr inbounds nuw %"struct.std::_Vector_base<long, std::allocator<long>>::_Vector_impl_data", ptr %7, i32 0, i32 0
  %9 = load ptr, ptr %8, align 8
  %10 = ptrtoint ptr %6 to i64
  %11 = ptrtoint ptr %9 to i64
  %12 = sub i64 %10, %11
  %13 = sdiv exact i64 %12, 8
  ret i64 %13
}

; Function Attrs: mustprogress uwtable
define void @_ZN10open_spiel19matching_pennies_3p22MatchingPennies3pState14DoApplyActionsERKSt6vectorIlSaIlEE(ptr noundef nonnull align 8 dereferenceable(88) %0, ptr noundef nonnull align 8 dereferenceable(24) %1) unnamed_addr #4 align 2 personality ptr @__gxx_personality_v0 {
  %3 = alloca ptr, align 8
  %4 = alloca ptr, align 8
  %5 = alloca i64, align 8
  %6 = alloca i32, align 4
  %7 = alloca %"class.std::__cxx11::basic_string", align 8
  %8 = alloca i32, align 4
  %9 = alloca ptr, align 8
  %10 = alloca i32, align 4
  store ptr %0, ptr %3, align 8
  store ptr %1, ptr %4, align 8
  %11 = load ptr, ptr %3, align 8
  br label %12

12:                                               ; preds = %2
  %13 = load ptr, ptr %4, align 8
  %14 = call noundef i64 @_ZNKSt6vectorIlSaIlEE4sizeEv(ptr noundef nonnull align 8 dereferenceable(24) %13) #3
  store i64 %14, ptr %5, align 8
  %15 = call noundef i32 @_ZNK10open_spiel5State10NumPlayersEv(ptr noundef nonnull align 8 dereferenceable(60) %11)
  store i32 %15, ptr %6, align 4
  %16 = load i64, ptr %5, align 8
  %17 = load i32, ptr %6, align 4
  %18 = sext i32 %17 to i64
  %19 = icmp eq i64 %16, %18
  br i1 %19, label %26, label %20

20:                                               ; preds = %12
  store i32 86, ptr %8, align 4
  call void @_ZN10open_spiel8internal11SpielStrCatIJRA158_KcRA2_S2_iS6_RA31_S2_RA16_S2_RA4_S2_RmRA18_S2_RiEEENSt7__cxx1112basic_stringIcSt11char_traitsIcESaIcEEEDpOT_(ptr dead_on_unwind writable sret(%"class.std::__cxx11::basic_string") align 8 %7, ptr noundef nonnull align 1 dereferenceable(158) @.str.8, ptr noundef nonnull align 1 dereferenceable(2) @.str.9, ptr noundef nonnull align 4 dereferenceable(4) %8, ptr noundef nonnull align 1 dereferenceable(2) @.str.10, ptr noundef nonnull align 1 dereferenceable(31) @.str.11, ptr noundef nonnull align 1 dereferenceable(16) @.str.12, ptr noundef nonnull align 1 dereferenceable(4) @.str.13, ptr noundef nonnull align 8 dereferenceable(8) %5, ptr noundef nonnull align 1 dereferenceable(18) @.str.14, ptr noundef nonnull align 4 dereferenceable(4) %6)
  invoke void @_ZN10open_spiel15SpielFatalErrorERKNSt7__cxx1112basic_stringIcSt11char_traitsIcESaIcEEE(ptr noundef nonnull align 8 dereferenceable(32) %7) #14
          to label %21 unwind label %22

21:                                               ; preds = %20
  unreachable

22:                                               ; preds = %20
  %23 = landingpad { ptr, i32 }
          cleanup
  %24 = extractvalue { ptr, i32 } %23, 0
  store ptr %24, ptr %9, align 8
  %25 = extractvalue { ptr, i32 } %23, 1
  store i32 %25, ptr %10, align 4
  call void @_ZNSt7__cxx1112basic_stringIcSt11char_traitsIcESaIcEED1Ev(ptr noundef nonnull align 8 dereferenceable(32) %7) #3
  br label %59

26:                                               ; preds = %12
  br label %27

27:                                               ; preds = %26
  %28 = load ptr, ptr %4, align 8
  %29 = call noundef nonnull align 8 dereferenceable(8) ptr @_ZNKSt6vectorIlSaIlEEixEm(ptr noundef nonnull align 8 dereferenceable(24) %28, i64 noundef 0) #3
  %30 = load i64, ptr %29, align 8
  %31 = load ptr, ptr %4, align 8
  %32 = call noundef nonnull align 8 dereferenceable(8) ptr @_ZNKSt6vectorIlSaIlEEixEm(ptr noundef nonnull align 8 dereferenceable(24) %31, i64 noundef 1) #3
  %33 = load i64, ptr %32, align 8
  %34 = icmp eq i64 %30, %33
  %35 = select i1 %34, double 1.000000e+00, double -1.000000e+00
  %36 = getelementptr inbounds nuw %"class.open_spiel::matching_pennies_3p::MatchingPennies3pState", ptr %11, i32 0, i32 2
  %37 = call noundef nonnull align 8 dereferenceable(8) ptr @_ZNSt6vectorIdSaIdEEixEm(ptr noundef nonnull align 8 dereferenceable(24) %36, i64 noundef 0) #3
  store double %35, ptr %37, align 8
  %38 = load ptr, ptr %4, align 8
  %39 = call noundef nonnull align 8 dereferenceable(8) ptr @_ZNKSt6vectorIlSaIlEEixEm(ptr noundef nonnull align 8 dereferenceable(24) %38, i64 noundef 1) #3
  %40 = load i64, ptr %39, align 8
  %41 = load ptr, ptr %4, align 8
  %42 = call noundef nonnull align 8 dereferenceable(8) ptr @_ZNKSt6vectorIlSaIlEEixEm(ptr noundef nonnull align 8 dereferenceable(24) %41, i64 noundef 2) #3
  %43 = load i64, ptr %42, align 8
  %44 = icmp eq i64 %40, %43
  %45 = select i1 %44, double 1.000000e+00, double -1.000000e+00
  %46 = getelementptr inbounds nuw %"class.open_spiel::matching_pennies_3p::MatchingPennies3pState", ptr %11, i32 0, i32 2
  %47 = call noundef nonnull align 8 dereferenceable(8) ptr @_ZNSt6vectorIdSaIdEEixEm(ptr noundef nonnull align 8 dereferenceable(24) %46, i64 noundef 1) #3
  store double %45, ptr %47, align 8
  %48 = load ptr, ptr %4, align 8
  %49 = call noundef nonnull align 8 dereferenceable(8) ptr @_ZNKSt6vectorIlSaIlEEixEm(ptr noundef nonnull align 8 dereferenceable(24) %48, i64 noundef 2) #3
  %50 = load i64, ptr %49, align 8
  %51 = load ptr, ptr %4, align 8
  %52 = call noundef nonnull align 8 dereferenceable(8) ptr @_ZNKSt6vectorIlSaIlEEixEm(ptr noundef nonnull align 8 dereferenceable(24) %51, i64 noundef 0) #3
  %53 = load i64, ptr %52, align 8
  %54 = icmp ne i64 %50, %53
  %55 = select i1 %54, double 1.000000e+00, double -1.000000e+00
  %56 = getelementptr inbounds nuw %"class.open_spiel::matching_pennies_3p::MatchingPennies3pState", ptr %11, i32 0, i32 2
  %57 = call noundef nonnull align 8 dereferenceable(8) ptr @_ZNSt6vectorIdSaIdEEixEm(ptr noundef nonnull align 8 dereferenceable(24) %56, i64 noundef 2) #3
  store double %55, ptr %57, align 8
  %58 = getelementptr inbounds nuw %"class.open_spiel::matching_pennies_3p::MatchingPennies3pState", ptr %11, i32 0, i32 1
  store i8 1, ptr %58, align 4
  ret void

59:                                               ; preds = %22
  %60 = load ptr, ptr %9, align 8
  %61 = load i32, ptr %10, align 4
  %62 = insertvalue { ptr, i32 } poison, ptr %60, 0
  %63 = insertvalue { ptr, i32 } %62, i32 %61, 1
  resume { ptr, i32 } %63
}