; Function Attrs: mustprogress uwtable
define void @_ZN10open_spiel19matching_pennies_3p22MatchingPennies3pState14DoApplyActionsERKSt6vectorIlSaIlEE(ptr nocapture noundef nonnull align 8 dereferenceable(88) %0, ptr nocapture noundef nonnull readonly align 8 dereferenceable(24) %1) unnamed_addr #3 align 2 personality ptr @__gxx_personality_v0 {
  %3 = alloca i64, align 8
  %4 = alloca i32, align 4
  %5 = alloca %"class.std::__cxx11::basic_string", align 8
  %6 = alloca i32, align 4
  %7 = getelementptr inbounds nuw i8, ptr %1, i64 8
  %8 = load ptr, ptr %7, align 8
  %9 = load ptr, ptr %1, align 8
  %10 = ptrtoint ptr %8 to i64
  %11 = ptrtoint ptr %9 to i64
  %12 = sub i64 %10, %11
  %13 = ashr exact i64 %12, 3
  store i64 %13, ptr %3, align 8
  %14 = getelementptr inbounds nuw i8, ptr %0, i64 28
  %15 = load i32, ptr %14, align 4
  store i32 %15, ptr %4, align 4
  %16 = sext i32 %15 to i64
  %17 = icmp eq i64 %13, %16
  br i1 %17, label %22, label %18

18:                                               ; preds = %2
  store i32 86, ptr %6, align 4
  call void @_ZN10open_spiel8internal11SpielStrCatIJRA158_KcRA2_S2_iS6_RA31_S2_RA16_S2_RA4_S2_RmRA18_S2_RiEEENSt7__cxx1112basic_stringIcSt11char_traitsIcESaIcEEEDpOT_(ptr dead_on_unwind nonnull writable sret(%"class.std::__cxx11::basic_string") align 8 %5, ptr noundef nonnull align 1 dereferenceable(158) @.str.8, ptr noundef nonnull align 1 dereferenceable(2) @.str.9, ptr noundef nonnull align 4 dereferenceable(4) %6, ptr noundef nonnull align 1 dereferenceable(2) @.str.10, ptr noundef nonnull align 1 dereferenceable(31) @.str.11, ptr noundef nonnull align 1 dereferenceable(16) @.str.12, ptr noundef nonnull align 1 dereferenceable(4) @.str.13, ptr noundef nonnull align 8 dereferenceable(8) %3, ptr noundef nonnull align 1 dereferenceable(18) @.str.14, ptr noundef nonnull align 4 dereferenceable(4) %4)
  invoke void @_ZN10open_spiel15SpielFatalErrorERKNSt7__cxx1112basic_stringIcSt11char_traitsIcESaIcEEE(ptr noundef nonnull align 8 dereferenceable(32) %5) #22
          to label %19 unwind label %20

19:                                               ; preds = %18
  unreachable

20:                                               ; preds = %18
  %21 = landingpad { ptr, i32 }
          cleanup
  call void @_ZNSt7__cxx1112basic_stringIcSt11char_traitsIcESaIcEED1Ev(ptr noundef nonnull align 8 dereferenceable(32) %5) #23
  resume { ptr, i32 } %21

22:                                               ; preds = %2
  %23 = load i64, ptr %9, align 8
  %24 = getelementptr inbounds i8, ptr %9, i64 8
  %25 = load i64, ptr %24, align 8
  %26 = icmp eq i64 %23, %25
  %27 = select i1 %26, double 1.000000e+00, double -1.000000e+00
  %28 = getelementptr inbounds nuw i8, ptr %0, i64 64
  %29 = load ptr, ptr %28, align 8
  store double %27, ptr %29, align 8
  %30 = load ptr, ptr %1, align 8
  %31 = getelementptr inbounds i8, ptr %30, i64 8
  %32 = load i64, ptr %31, align 8
  %33 = getelementptr inbounds i8, ptr %30, i64 16
  %34 = load i64, ptr %33, align 8
  %35 = icmp eq i64 %32, %34
  %36 = select i1 %35, double 1.000000e+00, double -1.000000e+00
  %37 = load ptr, ptr %28, align 8
  %38 = getelementptr inbounds i8, ptr %37, i64 8
  store double %36, ptr %38, align 8
  %39 = load ptr, ptr %1, align 8
  %40 = getelementptr inbounds i8, ptr %39, i64 16
  %41 = load i64, ptr %40, align 8
  %42 = load i64, ptr %39, align 8
  %.not = icmp eq i64 %41, %42
  %43 = select i1 %.not, double -1.000000e+00, double 1.000000e+00
  %44 = load ptr, ptr %28, align 8
  %45 = getelementptr inbounds i8, ptr %44, i64 16
  store double %43, ptr %45, align 8
  %46 = getelementptr inbounds nuw i8, ptr %0, i64 60
  store i8 1, ptr %46, align 4
  ret void
}